target datalayout = "e-m:e-p270:32:32-p271:32:32-p272:64:64-i64:64-i128:128-f80:128-n8:16:32:64-S128"
target triple = "x86_64-pc-linux-gnu"

%"class.(anonymous namespace)::bv_size_reduction_tactic" = type <{ %class.tactic.base, [4 x i8], ptr, %class.bv_util, %class.obj_map, %class.obj_map, %class.obj_map, %class.obj_map, %class.ref, %class.ref, %class.scoped_ptr, i8, [7 x i8] }>
%class.tactic.base = type <{ %"class.user_propagator::core", i32 }>
%"class.user_propagator::core" = type { ptr }
%class.bv_util = type { %class.bv_recognizers, ptr, ptr }
%class.bv_recognizers = type { i32 }
%class.obj_map = type { %class.core_hashtable }
%class.core_hashtable = type <{ ptr, i32, i32, i32, [4 x i8] }>
%class.ref = type { ptr }
%class.scoped_ptr = type { ptr }
%class.converter = type <{ ptr, i32, [4 x i8] }>

; Function Attrs: mustprogress uwtable
define linkonce_odr hidden void @_Z7deallocI9converterEvPT_(ptr noundef %0) #4 comdat {
  %2 = alloca ptr, align 8
  store ptr %0, ptr %2, align 8, !tbaa !133
  %3 = load ptr, ptr %2, align 8, !tbaa !133
  %4 = icmp eq ptr %3, null
  br i1 %4, label %5, label %6

5:                                                ; preds = %1
  br label %12

6:                                                ; preds = %1
  %7 = load ptr, ptr %2, align 8, !tbaa !133
  %8 = load ptr, ptr %7, align 8, !tbaa !12
  %9 = getelementptr inbounds ptr, ptr %8, i64 0
  %10 = load ptr, ptr %9, align 8
  call void %10(ptr noundef nonnull align 8 dereferenceable(12) %7) #3
  %11 = load ptr, ptr %2, align 8, !tbaa !133
  call void @_ZN6memory10deallocateEPv(ptr noundef %11)
  br label %12

12:                                               ; preds = %6, %5
  ret void
}

; Function Attrs: mustprogress uwtable
define linkonce_odr hidden void @_ZN9converter7dec_refEv(ptr noundef nonnull align 8 dereferenceable(12) %0) #4 comdat align 2 {
  %2 = alloca ptr, align 8
  store ptr %0, ptr %2, align 8, !tbaa !133
  %3 = load ptr, ptr %2, align 8
  %4 = getelementptr inbounds nuw %class.converter, ptr %3, i32 0, i32 1
  %5 = load i32, ptr %4, align 8, !tbaa !135
  %6 = add i32 %5, -1
  store i32 %6, ptr %4, align 8, !tbaa !135
  %7 = getelementptr inbounds nuw %class.converter, ptr %3, i32 0, i32 1
  %8 = load i32, ptr %7, align 8, !tbaa !135
  %9 = icmp eq i32 %8, 0
  br i1 %9, label %10, label %11

10:                                               ; preds = %1
  call void @_Z7deallocI9converterEvPT_(ptr noundef %3)
  br label %11

11:                                               ; preds = %10, %1
  ret void
}

; Function Attrs: mustprogress uwtable
define linkonce_odr hidden void @_ZN3refI23generic_model_converterE7dec_refEv(ptr noundef nonnull align 8 dereferenceable(8) %0) #4 comdat align 2 {
  %2 = alloca ptr, align 8
  store ptr %0, ptr %2, align 8, !tbaa !22
  %3 = load ptr, ptr %2, align 8
  %4 = getelementptr inbounds nuw %class.ref, ptr %3, i32 0, i32 0
  %5 = load ptr, ptr %4, align 8, !tbaa !24
  %6 = icmp ne ptr %5, null
  br i1 %6, label %7, label %10

7:                                                ; preds = %1
  %8 = getelementptr inbounds nuw %class.ref, ptr %3, i32 0, i32 0
  %9 = load ptr, ptr %8, align 8, !tbaa !24
  call void @_ZN9converter7dec_refEv(ptr noundef nonnull align 8 dereferenceable(12) %9)
  br label %10

10:                                               ; preds = %7, %1
  ret void
}

; Function Attrs: mustprogress nounwind uwtable
define linkonce_odr hidden void @_ZN9converter7inc_refEv(ptr noundef nonnull align 8 dereferenceable(12) %0) #6 comdat align 2 {
  %2 = alloca ptr, align 8
  store ptr %0, ptr %2, align 8, !tbaa !133
  %3 = load ptr, ptr %2, align 8
  %4 = getelementptr inbounds nuw %class.converter, ptr %3, i32 0, i32 1
  %5 = load i32, ptr %4, align 8, !tbaa !135
  %6 = add i32 %5, 1
  store i32 %6, ptr %4, align 8, !tbaa !135
  ret void
}

; Function Attrs: mustprogress nounwind uwtable
define linkonce_odr hidden noundef ptr @_ZNK10scoped_ptrI13expr_replacerEptEv(ptr noundef nonnull align 8 dereferenceable(8) %0) #6 comdat align 2 {
  %2 = alloca ptr, align 8
  store ptr %0, ptr %2, align 8, !tbaa !27
  %3 = load ptr, ptr %2, align 8
  %4 = getelementptr inbounds nuw %class.scoped_ptr, ptr %3, i32 0, i32 0
  %5 = load ptr, ptr %4, align 8, !tbaa !31
  ret ptr %5
}

; Function Attrs: mustprogress uwtable
define linkonce_odr hidden noundef nonnull align 8 dereferenceable(8) ptr @_ZN3refI23generic_model_converterEaSEPS0_(ptr noundef nonnull align 8 dereferenceable(8) %0, ptr noundef %1) #4 comdat align 2 {
  %3 = alloca ptr, align 8
  %4 = alloca ptr, align 8
  store ptr %0, ptr %3, align 8, !tbaa !22
  store ptr %1, ptr %4, align 8, !tbaa !184
  %5 = load ptr, ptr %3, align 8
  %6 = load ptr, ptr %4, align 8, !tbaa !184
  %7 = icmp ne ptr %6, null
  br i1 %7, label %8, label %10

8:                                                ; preds = %2
  %9 = load ptr, ptr %4, align 8, !tbaa !184
  call void @_ZN9converter7inc_refEv(ptr noundef nonnull align 8 dereferenceable(12) %9)
  br label %10

10:                                               ; preds = %8, %2
  call void @_ZN3refI23generic_model_converterE7dec_refEv(ptr noundef nonnull align 8 dereferenceable(8) %5)
  %11 = load ptr, ptr %4, align 8, !tbaa !184
  %12 = getelementptr inbounds nuw %class.ref, ptr %5, i32 0, i32 0
  store ptr %11, ptr %12, align 8, !tbaa !24
  ret ptr %5
}

; Function Attrs: mustprogress uwtable
define linkonce_odr hidden void @_ZN7obj_mapI3app8rationalE5resetEv(ptr noundef nonnull align 8 dereferenceable(24) %0) #4 comdat align 2 {
  %2 = alloca ptr, align 8
  store ptr %0, ptr %2, align 8, !tbaa !20
  %3 = load ptr, ptr %2, align 8
  %4 = getelementptr inbounds nuw %class.obj_map, ptr %3, i32 0, i32 0
  call void @_ZN14core_hashtableIN7obj_mapI3app8rationalE13obj_map_entryE8obj_hashINS3_8key_dataEE10default_eqIS6_EE5resetEv(ptr noundef nonnull align 8 dereferenceable(20) %4)
  ret void
}

; Function Attrs: mustprogress uwtable
define internal void @_ZN12_GLOBAL__N_124bv_size_reduction_tactic7cleanupEv(ptr noundef nonnull align 8 dereferenceable(169) %0) unnamed_addr #4 align 2 {
  %2 = alloca ptr, align 8
  store ptr %0, ptr %2, align 8, !tbaa !10
  %3 = load ptr, ptr %2, align 8
  %4 = getelementptr inbounds nuw %"class.(anonymous namespace)::bv_size_reduction_tactic", ptr %3, i32 0, i32 4
  call void @_ZN7obj_mapI3app8rationalE5resetEv(ptr noundef nonnull align 8 dereferenceable(24) %4)
  %5 = getelementptr inbounds nuw %"class.(anonymous namespace)::bv_size_reduction_tactic", ptr %3, i32 0, i32 5
  call void @_ZN7obj_mapI3app8rationalE5resetEv(ptr noundef nonnull align 8 dereferenceable(24) %5)
  %6 = getelementptr inbounds nuw %"class.(anonymous namespace)::bv_size_reduction_tactic", ptr %3, i32 0, i32 6
  call void @_ZN7obj_mapI3app8rationalE5resetEv(ptr noundef nonnull align 8 dereferenceable(24) %6)
  %7 = getelementptr inbounds nuw %"class.(anonymous namespace)::bv_size_reduction_tactic", ptr %3, i32 0, i32 7
  call void @_ZN7obj_mapI3app8rationalE5resetEv(ptr noundef nonnull align 8 dereferenceable(24) %7)
  %8 = getelementptr inbounds nuw %"class.(anonymous namespace)::bv_size_reduction_tactic", ptr %3, i32 0, i32 8
  %9 = call noundef nonnull align 8 dereferenceable(8) ptr @_ZN3refI23generic_model_converterEaSEPS0_(ptr noundef nonnull align 8 dereferenceable(8) %8, ptr noundef null)
  %10 = getelementptr inbounds nuw %"class.(anonymous namespace)::bv_size_reduction_tactic", ptr %3, i32 0, i32 9
  %11 = call noundef nonnull align 8 dereferenceable(8) ptr @_ZN3refI23generic_model_converterEaSEPS0_(ptr noundef nonnull align 8 dereferenceable(8) %10, ptr noundef null)
  %12 = getelementptr inbounds nuw %"class.(anonymous namespace)::bv_size_reduction_tactic", ptr %3, i32 0, i32 10
  %13 = call noundef ptr @_ZNK10scoped_ptrI13expr_replacerEptEv(ptr noundef nonnull align 8 dereferenceable(8) %12)
  %14 = load ptr, ptr %13, align 8, !tbaa !12
  %15 = getelementptr inbounds ptr, ptr %14, i64 6
  %16 = load ptr, ptr %15, align 8
  call void %16(ptr noundef nonnull align 8 dereferenceable(8) %13)
  ret void
}