; Function Attrs: mustprogress uwtable
define internal void @_ZN12_GLOBAL__N_124bv_size_reduction_tactic7cleanupEv(ptr noundef nonnull align 8 dereferenceable(169) %0) unnamed_addr #3 align 2 {
  %2 = getelementptr inbounds nuw i8, ptr %0, i64 48
  tail call void @_ZN14core_hashtableIN7obj_mapI3app8rationalE13obj_map_entryE8obj_hashINS3_8key_dataEE10default_eqIS6_EE5resetEv(ptr noundef nonnull align 8 dereferenceable(24) %2)
  %3 = getelementptr inbounds nuw i8, ptr %0, i64 72
  tail call void @_ZN14core_hashtableIN7obj_mapI3app8rationalE13obj_map_entryE8obj_hashINS3_8key_dataEE10default_eqIS6_EE5resetEv(ptr noundef nonnull align 8 dereferenceable(24) %3)
  %4 = getelementptr inbounds nuw i8, ptr %0, i64 96
  tail call void @_ZN14core_hashtableIN7obj_mapI3app8rationalE13obj_map_entryE8obj_hashINS3_8key_dataEE10default_eqIS6_EE5resetEv(ptr noundef nonnull align 8 dereferenceable(24) %4)
  %5 = getelementptr inbounds nuw i8, ptr %0, i64 120
  tail call void @_ZN14core_hashtableIN7obj_mapI3app8rationalE13obj_map_entryE8obj_hashINS3_8key_dataEE10default_eqIS6_EE5resetEv(ptr noundef nonnull align 8 dereferenceable(24) %5)
  %6 = getelementptr inbounds nuw i8, ptr %0, i64 144
  %7 = load ptr, ptr %6, align 8, !tbaa !29
  %.not.i.i = icmp eq ptr %7, null
  br i1 %.not.i.i, label %_ZN3refI23generic_model_converterEaSEPS0_.exit, label %8

8:                                                ; preds = %1
  %9 = getelementptr inbounds nuw i8, ptr %7, i64 8
  %10 = load i32, ptr %9, align 8, !tbaa !32
  %11 = add i32 %10, -1
  store i32 %11, ptr %9, align 8, !tbaa !32
  %12 = icmp eq i32 %11, 0
  br i1 %12, label %13, label %_ZN3refI23generic_model_converterEaSEPS0_.exit

13:                                               ; preds = %8
  %14 = load ptr, ptr %7, align 8, !tbaa !9
  %15 = load ptr, ptr %14, align 8
  tail call void %15(ptr noundef nonnull align 8 dereferenceable(12) %7) #22
  tail call void @_ZN6memory10deallocateEPv(ptr noundef nonnull align 8 dereferenceable(12) %7)
  br label %_ZN3refI23generic_model_converterEaSEPS0_.exit

_ZN3refI23generic_model_converterEaSEPS0_.exit:   ; preds = %1, %8, %13
  store ptr null, ptr %6, align 8, !tbaa !29
  %16 = getelementptr inbounds nuw i8, ptr %0, i64 152
  %17 = load ptr, ptr %16, align 8, !tbaa !29
  %.not.i.i1 = icmp eq ptr %17, null
  br i1 %.not.i.i1, label %_ZN3refI23generic_model_converterEaSEPS0_.exit2, label %18

18:                                               ; preds = %_ZN3refI23generic_model_converterEaSEPS0_.exit
  %19 = getelementptr inbounds nuw i8, ptr %17, i64 8
  %20 = load i32, ptr %19, align 8, !tbaa !32
  %21 = add i32 %20, -1
  store i32 %21, ptr %19, align 8, !tbaa !32
  %22 = icmp eq i32 %21, 0
  br i1 %22, label %23, label %_ZN3refI23generic_model_converterEaSEPS0_.exit2

23:                                               ; preds = %18
  %24 = load ptr, ptr %17, align 8, !tbaa !9
  %25 = load ptr, ptr %24, align 8
  tail call void %25(ptr noundef nonnull align 8 dereferenceable(12) %17) #22
  tail call void @_ZN6memory10deallocateEPv(ptr noundef nonnull align 8 dereferenceable(12) %17)
  br label %_ZN3refI23generic_model_converterEaSEPS0_.exit2

_ZN3refI23generic_model_converterEaSEPS0_.exit2:  ; preds = %_ZN3refI23generic_model_converterEaSEPS0_.exit, %18, %23
  store ptr null, ptr %16, align 8, !tbaa !29
  %26 = getelementptr inbounds nuw i8, ptr %0, i64 160
  %27 = load ptr, ptr %26, align 8, !tbaa !26
  %28 = load ptr, ptr %27, align 8, !tbaa !9
  %29 = getelementptr inbounds nuw i8, ptr %28, i64 48
  %30 = load ptr, ptr %29, align 8
  tail call void %30(ptr noundef nonnull align 8 dereferenceable(8) %27)
  ret void
}